Certificate:
    Data:
        Version: 3 (0x2)
        Serial Number: 2 (0x2)
        Signature Algorithm: sha256WithRSAEncryption
        Issuer: C=CZ, ST=Some-State, O=CESNET, OU=TMC, CN=Intermediate Client CA
        Validity
            Not Before: Jun  3 11:57:09 2025 GMT
            Not After : Jun  1 11:57:09 2035 GMT
        Subject: C=CZ, ST=Some-State, O=CESNET, OU=TMC, CN=client
        Subject Public Key Info:
            Public Key Algorithm: rsaEncryption
                Public-Key: (2048 bit)
                Modulus:
                    00:d2:b3:45:48:e0:76:f9:6e:35:54:6a:ea:9a:4f:
                    dd:b1:29:19:f5:79:f1:3b:c5:e0:39:a9:f5:af:ea:
                    e6:0c:03:c0:0f:8f:d6:8f:0b:8c:cb:52:81:22:c5:
                    ea:09:8c:97:e7:c2:9c:fd:2a:c9:6d:e6:53:a6:ba:
                    5f:b7:d0:e4:86:42:49:08:be:34:37:c5:92:65:34:
                    93:e5:0e:aa:7f:ae:8d:8c:f0:cb:f9:cd:59:5e:56:
                    c1:97:e9:e1:2f:54:eb:60:8f:36:df:05:a5:e7:b1:
                    cc:5a:bb:12:03:1f:0b:ec:05:fd:fd:5b:aa:29:ef:
                    8d:8c:8f:09:a9:d5:ce:5b:84:c0:32:c1:04:20:35:
                    7b:fd:fa:bb:e6:3a:20:26:5d:f6:b3:57:36:74:d4:
                    bd:57:2d:09:ad:b5:13:cb:85:47:05:90:45:ab:17:
                    89:ef:b9:7c:dd:f4:ce:5d:eb:06:7f:3d:42:4c:e3:
                    d3:84:f2:0a:7f:3a:f6:d5:4c:a4:b0:08:6c:62:3d:
                    87:32:34:5a:f5:fb:b9:03:36:2f:37:6b:ba:53:90:
                    e1:a3:f5:e5:9c:e8:fc:fe:92:a5:3f:6d:da:e9:2a:
                    9f:be:26:ee:f9:89:52:8e:f2:d6:ce:a0:99:5e:a2:
                    66:3d:5c:49:94:73:c1:4a:a7:42:19:2b:0d:a2:51:
                    4e:31
                Exponent: 65537 (0x10001)
        X509v3 extensions:
            X509v3 Subject Key Identifier: 
                C4:30:21:DE:F9:75:98:59:AE:63:B7:5B:70:0F:E1:C0:72:B1:EF:7F
            X509v3 Authority Key Identifier: 
                F2:CF:C5:9A:C6:63:7A:AB:A0:59:60:41:FE:7D:3F:5D:BE:9A:D5:3F
    Signature Algorithm: sha256WithRSAEncryption
    Signature Value:
        78:e4:53:ad:ce:4c:38:ed:3f:74:89:78:66:79:1a:45:bb:98:
        03:95:27:9b:c9:72:77:10:2a:ac:df:99:7d:b0:35:91:52:9e:
        45:ff:f7:ff:40:30:8b:84:8b:78:5f:b0:2a:8e:f6:7c:af:4d:
        6c:46:de:2b:c1:35:db:5e:1f:5e:b9:df:d1:65:34:03:99:fd:
        89:3b:b9:e1:52:1d:ac:03:ce:3e:7b:78:43:6b:c7:4d:65:f2:
        13:da:d6:88:4b:a4:f9:00:c0:29:c7:70:e7:37:a6:58:bd:41:
        b2:c6:22:00:93:23:2d:78:df:88:15:00:f3:38:0d:dc:6d:67:
        5a:5c:56:2d:9f:04:74:25:29:9a:fc:25:56:a8:3d:43:4d:53:
        6f:04:3c:34:25:e1:d5:16:4c:a4:39:39:82:3e:df:c9:98:ef:
        67:55:c4:8b:99:4b:5c:9f:93:b0:51:17:9c:0b:bc:48:16:64:
        79:0c:47:75:69:61:02:0d:34:dd:d8:c4:74:fc:2b:71:3b:3e:
        f2:e8:9b:2f:eb:c4:55:22:d7:4e:fd:ff:29:92:f1:05:bc:77:
        57:96:6f:80:73:67:84:82:dc:4a:8d:8f:91:97:85:66:a0:dc:
        2e:12:53:dc:e0:b2:5d:e0:a3:31:9a:97:4e:c6:b6:5d:48:30:
        9f:81:9e:14
-----BEGIN CERTIFICATE-----
MIIDcTCCAlmgAwIBAgIBAjANBgkqhkiG9w0BAQsFADBiMQswCQYDVQQGEwJDWjET
MBEGA1UECAwKU29tZS1TdGF0ZTEPMA0GA1UECgwGQ0VTTkVUMQwwCgYDVQQLDANU
TUMxHzAdBgNVBAMMFkludGVybWVkaWF0ZSBDbGllbnQgQ0EwHhcNMjUwNjAzMTE1
NzA5WhcNMzUwNjAxMTE1NzA5WjBSMQswCQYDVQQGEwJDWjETMBEGA1UECAwKU29t
ZS1TdGF0ZTEPMA0GA1UECgwGQ0VTTkVUMQwwCgYDVQQLDANUTUMxDzANBgNVBAMM
BmNsaWVudDCCASIwDQYJKoZIhvcNAQEBBQADggEPADCCAQoCggEBANKzRUjgdvlu
NVRq6ppP3bEpGfV58TvF4Dmp9a/q5gwDwA+P1o8LjMtSgSLF6gmMl+fCnP0qyW3m
U6a6X7fQ5IZCSQi+NDfFkmU0k+UOqn+ujYzwy/nNWV5WwZfp4S9U62CPNt8Fpeex
zFq7EgMfC+wF/f1bqinvjYyPCanVzluEwDLBBCA1e/36u+Y6ICZd9rNXNnTUvVct
Ca21E8uFRwWQRasXie+5fN30zl3rBn89Qkzj04TyCn869tVMpLAIbGI9hzI0WvX7
uQM2LzdrulOQ4aP15Zzo/P6SpT9t2ukqn74m7vmJUo7y1s6gmV6iZj1cSZRzwUqn
QhkrDaJRTjECAwEAAaNCMEAwHQYDVR0OBBYEFMQwId75dZhZrmO3W3AP4cByse9/
MB8GA1UdIwQYMBaAFPLPxZrGY3qroFlgQf59P12+mtU/MA0GCSqGSIb3DQEBCwUA
A4IBAQB45FOtzkw47T90iXhmeRpFu5gDlSebyXJ3ECqs35l9sDWRUp5F//f/QDCL
hIt4X7AqjvZ8r01sRt4rwTXbXh9eud/RZTQDmf2JO7nhUh2sA84+e3hDa8dNZfIT
2taIS6T5AMApx3DnN6ZYvUGyxiIAkyMteN+IFQDzOA3cbWdaXFYtnwR0JSma/CVW
qD1DTVNvBDw0JeHVFkykOTmCPt/JmO9nVcSLmUtcn5OwURecC7xIFmR5DEd1aWEC
DTTd2MR0/CtxOz7y6Jsv68RVItdO/f8pkvEFvHdXlm+Ac2eEgtxKjY+Rl4VmoNwu
ElPc4LJd4KMxmpdOxrZdSDCfgZ4U
-----END CERTIFICATE-----
