Certificate:
    Data:
        Version: 3 (0x2)
        Serial Number: 1 (0x1)
        Signature Algorithm: sha256WithRSAEncryption
        Issuer: C=CZ, ST=Some-State, O=CESNET, OU=TMC, CN=clientca
        Validity
            Not Before: Oct 25 11:04:52 2024 GMT
            Not After : Oct 23 11:04:52 2034 GMT
        Subject: C=CZ, ST=Some-State, O=CESNET, OU=TMC, CN=Intermediate Client CA
        Subject Public Key Info:
            Public Key Algorithm: rsaEncryption
                Public-Key: (2048 bit)
                Modulus:
                    00:c1:7c:21:2d:3b:ae:79:77:61:32:6e:67:1a:a1:
                    9e:9d:29:f0:18:3c:6f:ff:f3:47:7d:90:bc:60:a6:
                    ee:73:e2:ba:f2:76:7b:14:6d:3a:b2:9a:e0:81:93:
                    a2:7b:50:d0:06:42:ab:08:60:cc:ff:4c:e8:aa:7a:
                    60:c1:c5:88:6c:41:2e:3c:e1:36:36:29:20:9d:2a:
                    c1:02:47:cf:55:eb:35:38:ce:1b:9e:af:c1:4e:b6:
                    b2:53:3a:2d:88:dd:e0:0e:de:48:93:e9:fa:52:99:
                    56:f2:f8:ce:62:a3:51:a9:65:12:0e:a0:6f:2c:bf:
                    98:5e:3b:1f:0d:81:be:56:37:07:93:b9:27:ab:b9:
                    56:e2:01:01:79:cd:ee:b0:e9:1c:ad:09:9a:b8:9b:
                    fe:83:9b:24:e7:c6:8c:09:78:02:73:0a:93:7c:d3:
                    82:48:65:e6:9d:ee:29:62:db:76:46:0e:a5:ff:84:
                    bd:16:47:46:59:dd:bc:5f:6f:0d:25:59:3f:3b:a2:
                    40:0c:93:28:c9:dd:95:a2:98:37:f8:e3:e7:27:38:
                    47:b1:e6:37:a5:87:aa:dd:32:09:64:29:81:1a:06:
                    72:eb:3f:e3:13:22:1d:23:b4:d0:81:37:cb:e4:3a:
                    cc:db:6d:19:59:3d:92:ac:cd:fe:47:9a:3f:e2:b8:
                    a8:3d
                Exponent: 65537 (0x10001)
        X509v3 extensions:
            X509v3 Basic Constraints: critical
                CA:TRUE
            X509v3 Key Usage: critical
                Certificate Sign
            X509v3 Subject Key Identifier: 
                F2:CF:C5:9A:C6:63:7A:AB:A0:59:60:41:FE:7D:3F:5D:BE:9A:D5:3F
            X509v3 Authority Key Identifier: 
                CD:59:B8:BB:EB:BA:27:B2:66:3C:1C:05:76:9B:71:8A:68:EA:30:FD
    Signature Algorithm: sha256WithRSAEncryption
    Signature Value:
        9e:58:d0:f1:42:e7:02:a1:21:34:d6:a8:9c:37:0e:7b:a3:c2:
        e6:76:b9:33:1f:df:88:9c:84:39:58:d1:ef:d2:59:59:5c:7a:
        80:36:a7:9c:3a:0f:27:62:b6:dd:f7:13:b6:d3:6b:c1:4a:95:
        db:c7:95:a8:51:fd:b0:8f:04:1e:5c:ce:4b:24:4e:69:a6:6e:
        e9:ff:ea:47:8a:33:e9:a7:8c:0e:35:8a:43:7a:9c:ca:ec:77:
        2d:b9:6d:df:72:b1:26:0e:2c:90:6b:0c:61:a2:d3:63:3a:c4:
        bd:fd:d3:f2:77:47:1f:6c:b2:61:53:44:76:68:e6:d9:93:2c:
        81:f1:ce:ea:cc:25:34:b6:7b:70:95:c2:35:d2:ee:9d:36:60:
        26:36:bd:16:32:85:96:2a:da:43:e5:34:6e:0b:21:4e:48:70:
        37:73:c5:b4:f1:98:e5:e7:8a:a7:d5:01:df:09:c3:e9:82:62:
        52:25:ab:22:d3:a9:41:a0:f2:27:d7:e2:50:14:c1:7e:56:2e:
        a6:d6:4a:1a:f4:b1:ba:27:75:f5:bf:b6:9e:f4:73:73:c7:21:
        7d:c4:f1:ba:01:66:12:a3:f3:3f:4a:af:55:67:ca:ac:2a:09:
        7f:1c:d8:82:04:d3:ec:89:33:f4:3c:6f:8d:4a:2e:73:f6:67:
        3b:e8:4c:19
-----BEGIN CERTIFICATE-----
MIIDlDCCAnygAwIBAgIBATANBgkqhkiG9w0BAQsFADBUMQswCQYDVQQGEwJDWjET
MBEGA1UECAwKU29tZS1TdGF0ZTEPMA0GA1UECgwGQ0VTTkVUMQwwCgYDVQQLDANU
TUMxETAPBgNVBAMMCGNsaWVudGNhMB4XDTI0MTAyNTExMDQ1MloXDTM0MTAyMzEx
MDQ1MlowYjELMAkGA1UEBhMCQ1oxEzARBgNVBAgMClNvbWUtU3RhdGUxDzANBgNV
BAoMBkNFU05FVDEMMAoGA1UECwwDVE1DMR8wHQYDVQQDDBZJbnRlcm1lZGlhdGUg
Q2xpZW50IENBMIIBIjANBgkqhkiG9w0BAQEFAAOCAQ8AMIIBCgKCAQEAwXwhLTuu
eXdhMm5nGqGenSnwGDxv//NHfZC8YKbuc+K68nZ7FG06sprggZOie1DQBkKrCGDM
/0zoqnpgwcWIbEEuPOE2NikgnSrBAkfPVes1OM4bnq/BTrayUzotiN3gDt5Ik+n6
UplW8vjOYqNRqWUSDqBvLL+YXjsfDYG+VjcHk7knq7lW4gEBec3usOkcrQmauJv+
g5sk58aMCXgCcwqTfNOCSGXmne4pYtt2Rg6l/4S9FkdGWd28X28NJVk/O6JADJMo
yd2Vopg3+OPnJzhHseY3pYeq3TIJZCmBGgZy6z/jEyIdI7TQgTfL5DrM220ZWT2S
rM3+R5o/4rioPQIDAQABo2MwYTAPBgNVHRMBAf8EBTADAQH/MA4GA1UdDwEB/wQE
AwICBDAdBgNVHQ4EFgQU8s/FmsZjequgWWBB/n0/Xb6a1T8wHwYDVR0jBBgwFoAU
zVm4u+u6J7JmPBwFdptximjqMP0wDQYJKoZIhvcNAQELBQADggEBAJ5Y0PFC5wKh
ITTWqJw3DnujwuZ2uTMf34ichDlY0e/SWVlceoA2p5w6Dyditt33E7bTa8FKldvH
lahR/bCPBB5czkskTmmmbun/6keKM+mnjA41ikN6nMrsdy25bd9ysSYOLJBrDGGi
02M6xL390/J3Rx9ssmFTRHZo5tmTLIHxzurMJTS2e3CVwjXS7p02YCY2vRYyhZYq
2kPlNG4LIU5IcDdzxbTxmOXniqfVAd8Jw+mCYlIlqyLTqUGg8ifX4lAUwX5WLqbW
Shr0sbondfW/tp70c3PHIX3E8boBZhKj8z9Kr1VnyqwqCX8c2IIE0+yJM/Q8b41K
LnP2ZzvoTBk=
-----END CERTIFICATE-----
