Certificate:
    Data:
        Version: 3 (0x2)
        Serial Number: 1 (0x1)
        Signature Algorithm: sha256WithRSAEncryption
        Issuer: C=CZ, ST=Some-State, O=CESNET, OU=TMC, CN=Intermediate Client CA
        Validity
            Not Before: Jun  3 11:56:18 2025 GMT
            Not After : Jun  1 11:56:18 2035 GMT
        Subject: C=CZ, ST=Some-State, O=CESNET, OU=TMC, CN=localhost
        Subject Public Key Info:
            Public Key Algorithm: rsaEncryption
                Public-Key: (2048 bit)
                Modulus:
                    00:e1:d7:11:16:34:a3:87:ce:b2:b2:4a:99:b6:b8:
                    b6:4c:fb:6a:7a:28:7d:d2:77:ac:82:c5:bf:9a:69:
                    2b:fc:94:80:70:39:c1:50:87:36:91:b9:61:ec:31:
                    e2:52:4b:5c:de:58:ae:29:84:29:83:64:31:86:e5:
                    f8:f5:37:0c:c6:ac:b1:11:cb:ec:e0:ad:df:04:af:
                    cd:a7:a6:ff:f1:a8:0a:0c:5f:1a:33:25:ec:50:23:
                    65:b3:98:d4:fc:d0:d8:f1:2b:4a:66:28:28:03:3e:
                    be:91:92:92:40:4a:02:f5:91:91:96:32:75:e2:4f:
                    93:8c:9c:ae:7f:62:74:78:8d:74:87:fb:84:ca:7d:
                    ea:c7:33:31:af:e1:75:f2:cb:84:a8:11:b3:d5:68:
                    22:23:8c:e6:2b:53:5b:8e:8d:56:ed:4b:10:87:da:
                    08:5e:07:9d:84:a9:42:f2:1f:ab:77:1b:ab:22:3a:
                    3a:6d:b2:ba:11:91:39:d0:61:2c:a4:26:55:cd:b5:
                    31:b4:5b:81:ea:04:49:3c:63:c0:45:17:54:3b:c8:
                    2e:ce:9c:f8:5a:c3:a1:97:f9:18:f9:af:97:60:b3:
                    6c:3e:d1:8c:3a:81:54:09:26:83:47:84:a7:b1:cd:
                    df:4d:40:83:03:38:c5:a5:d6:a4:aa:5d:51:86:29:
                    72:47
                Exponent: 65537 (0x10001)
        X509v3 extensions:
            X509v3 Subject Key Identifier: 
                D9:09:EE:AA:F0:9D:9B:83:99:92:C2:FA:16:71:AB:67:AA:D5:6A:22
            X509v3 Authority Key Identifier: 
                F2:CF:C5:9A:C6:63:7A:AB:A0:59:60:41:FE:7D:3F:5D:BE:9A:D5:3F
    Signature Algorithm: sha256WithRSAEncryption
    Signature Value:
        9f:d0:5b:0b:21:62:22:c7:a9:5b:92:bc:37:b5:fa:42:52:59:
        47:68:62:21:bf:b6:57:d5:38:c5:47:a6:67:a4:c7:40:ff:6c:
        40:99:89:7d:72:16:3f:ff:5c:b6:c1:24:cf:33:aa:55:25:76:
        94:f1:08:6c:7e:d5:79:81:0c:1b:0f:c7:76:0e:b1:09:84:8d:
        7e:8b:77:6a:e9:0f:bd:dd:fa:85:b9:83:c5:1e:e0:85:32:c0:
        49:5d:f7:25:d7:0c:4f:28:f4:20:45:b3:a2:72:b4:5d:c9:7a:
        ac:e4:e3:89:e8:a8:3f:35:d6:2d:2a:57:e2:4d:06:0b:88:34:
        39:14:a1:d0:4d:08:02:92:82:c3:7a:23:df:b4:c9:e3:8b:b0:
        0a:1c:f9:e5:57:db:d7:cd:22:6d:4d:e9:59:0e:e2:b8:f3:38:
        4c:20:3b:d0:18:16:e9:85:7d:2a:80:f9:99:10:1c:65:94:b3:
        29:8d:d3:a1:5b:9f:e3:cc:26:80:1f:d4:8f:a8:ab:82:29:7b:
        8e:2d:29:f5:bf:ab:86:ae:41:9b:1b:ef:fc:ef:9b:4f:0e:24:
        46:3e:86:28:25:af:fb:c9:5c:9a:46:ae:44:73:8f:bd:84:56:
        8b:6b:c0:22:26:e0:57:c9:f4:08:14:f5:aa:dc:e3:6f:2d:59:
        a4:8a:f8:5c
-----BEGIN CERTIFICATE-----
MIIDdDCCAlygAwIBAgIBATANBgkqhkiG9w0BAQsFADBiMQswCQYDVQQGEwJDWjET
MBEGA1UECAwKU29tZS1TdGF0ZTEPMA0GA1UECgwGQ0VTTkVUMQwwCgYDVQQLDANU
TUMxHzAdBgNVBAMMFkludGVybWVkaWF0ZSBDbGllbnQgQ0EwHhcNMjUwNjAzMTE1
NjE4WhcNMzUwNjAxMTE1NjE4WjBVMQswCQYDVQQGEwJDWjETMBEGA1UECAwKU29t
ZS1TdGF0ZTEPMA0GA1UECgwGQ0VTTkVUMQwwCgYDVQQLDANUTUMxEjAQBgNVBAMM
CWxvY2FsaG9zdDCCASIwDQYJKoZIhvcNAQEBBQADggEPADCCAQoCggEBAOHXERY0
o4fOsrJKmba4tkz7anoofdJ3rILFv5ppK/yUgHA5wVCHNpG5Yewx4lJLXN5YrimE
KYNkMYbl+PU3DMassRHL7OCt3wSvzaem//GoCgxfGjMl7FAjZbOY1PzQ2PErSmYo
KAM+vpGSkkBKAvWRkZYydeJPk4ycrn9idHiNdIf7hMp96sczMa/hdfLLhKgRs9Vo
IiOM5itTW46NVu1LEIfaCF4HnYSpQvIfq3cbqyI6Om2yuhGROdBhLKQmVc21MbRb
geoESTxjwEUXVDvILs6c+FrDoZf5GPmvl2CzbD7RjDqBVAkmg0eEp7HN301AgwM4
xaXWpKpdUYYpckcCAwEAAaNCMEAwHQYDVR0OBBYEFNkJ7qrwnZuDmZLC+hZxq2eq
1WoiMB8GA1UdIwQYMBaAFPLPxZrGY3qroFlgQf59P12+mtU/MA0GCSqGSIb3DQEB
CwUAA4IBAQCf0FsLIWIix6lbkrw3tfpCUllHaGIhv7ZX1TjFR6ZnpMdA/2xAmYl9
chY//1y2wSTPM6pVJXaU8QhsftV5gQwbD8d2DrEJhI1+i3dq6Q+93fqFuYPFHuCF
MsBJXfcl1wxPKPQgRbOicrRdyXqs5OOJ6Kg/NdYtKlfiTQYLiDQ5FKHQTQgCkoLD
eiPftMnji7AKHPnlV9vXzSJtTelZDuK48zhMIDvQGBbphX0qgPmZEBxllLMpjdOh
W5/jzCaAH9SPqKuCKXuOLSn1v6uGrkGbG+/875tPDiRGPoYoJa/7yVyaRq5Ec4+9
hFaLa8AiJuBXyfQIFPWq3ONvLVmkivhc
-----END CERTIFICATE-----
